target datalayout = "e-m:e-p270:32:32-p271:32:32-p272:64:64-i64:64-i128:128-f80:128-n8:16:32:64-S128"
target triple = "x86_64-pc-linux-gnu"

%"class.std::__cxx11::basic_string" = type { %"struct.std::__cxx11::basic_string<char>::_Alloc_hider", i64, %union.anon }
%"struct.std::__cxx11::basic_string<char>::_Alloc_hider" = type { ptr }
%union.anon = type { i64, [8 x i8] }
%"class.llvm::Triple" = type { %"class.std::__cxx11::basic_string", i32, i32, i32, i32, i32, i32 }
%"class.clang::driver::MultilibSet" = type { %"class.std::vector", %"class.std::vector.29", %"class.std::function", %"class.std::function" }
%"class.std::vector" = type { %"struct.std::_Vector_base" }
%"struct.std::_Vector_base" = type { %"struct.std::_Vector_base<clang::driver::Multilib, std::allocator<clang::driver::Multilib>>::_Vector_impl" }
%"struct.std::_Vector_base<clang::driver::Multilib, std::allocator<clang::driver::Multilib>>::_Vector_impl" = type { %"struct.std::_Vector_base<clang::driver::Multilib, std::allocator<clang::driver::Multilib>>::_Vector_impl_data" }
%"struct.std::_Vector_base<clang::driver::Multilib, std::allocator<clang::driver::Multilib>>::_Vector_impl_data" = type { ptr, ptr, ptr }
%"class.std::vector.29" = type { %"struct.std::_Vector_base.30" }
%"struct.std::_Vector_base.30" = type { %"struct.std::_Vector_base<clang::driver::MultilibSet::FlagMatcher, std::allocator<clang::driver::MultilibSet::FlagMatcher>>::_Vector_impl" }
%"struct.std::_Vector_base<clang::driver::MultilibSet::FlagMatcher, std::allocator<clang::driver::MultilibSet::FlagMatcher>>::_Vector_impl" = type { %"struct.std::_Vector_base<clang::driver::MultilibSet::FlagMatcher, std::allocator<clang::driver::MultilibSet::FlagMatcher>>::_Vector_impl_data" }
%"struct.std::_Vector_base<clang::driver::MultilibSet::FlagMatcher, std::allocator<clang::driver::MultilibSet::FlagMatcher>>::_Vector_impl_data" = type { ptr, ptr, ptr }
%"class.std::function" = type { %"class.std::_Function_base", ptr }
%"class.std::_Function_base" = type { %"union.std::_Any_data", ptr }
%"union.std::_Any_data" = type { %"union.std::_Nocopy_types" }
%"union.std::_Nocopy_types" = type { { i64, i64 } }
%"class.std::vector.41" = type { %"struct.std::_Vector_base.42" }
%"struct.std::_Vector_base.42" = type { %"struct.std::_Vector_base<std::__cxx11::basic_string<char>, std::allocator<std::__cxx11::basic_string<char>>>::_Vector_impl" }
%"struct.std::_Vector_base<std::__cxx11::basic_string<char>, std::allocator<std::__cxx11::basic_string<char>>>::_Vector_impl" = type { %"struct.std::_Vector_base<std::__cxx11::basic_string<char>, std::allocator<std::__cxx11::basic_string<char>>>::_Vector_impl_data" }
%"struct.std::_Vector_base<std::__cxx11::basic_string<char>, std::allocator<std::__cxx11::basic_string<char>>>::_Vector_impl_data" = type { ptr, ptr, ptr }
%"struct.std::_Rb_tree_header" = type { %"struct.std::_Rb_tree_node_base", i64 }
%"struct.std::_Rb_tree_node_base" = type { i32, ptr, ptr, ptr }
%"class.clang::driver::Multilib" = type { %"class.std::__cxx11::basic_string", %"class.std::__cxx11::basic_string", %"class.std::__cxx11::basic_string", %"class.std::vector.41", %"class.std::__cxx11::basic_string", %"class.std::optional.135" }
%"class.std::optional.135" = type { %"struct.std::_Optional_base.136" }
%"struct.std::_Optional_base.136" = type { %"struct.std::_Optional_payload.138" }
%"struct.std::_Optional_payload.138" = type { %"struct.std::_Optional_payload.base.142", [7 x i8] }
%"struct.std::_Optional_payload.base.142" = type { %"struct.std::_Optional_payload_base.base.141" }
%"struct.std::_Optional_payload_base.base.141" = type <{ %"union.std::_Optional_payload_base<std::__cxx11::basic_string<char>>::_Storage", i8 }>
%"union.std::_Optional_payload_base<std::__cxx11::basic_string<char>>::_Storage" = type { %"class.std::__cxx11::basic_string" }
%"class.std::optional.145" = type { %"struct.std::_Optional_base.146" }
%"struct.std::_Optional_base.146" = type { %"struct.std::_Optional_payload.148" }
%"struct.std::_Optional_payload.148" = type { %"struct.std::_Optional_payload.base.152", [7 x i8] }
%"struct.std::_Optional_payload.base.152" = type { %"struct.std::_Optional_payload_base.base.151" }
%"struct.std::_Optional_payload_base.base.151" = type <{ %"union.std::_Optional_payload_base<clang::driver::Multilib>::_Storage", i8 }>
%"union.std::_Optional_payload_base<clang::driver::Multilib>::_Storage" = type { %"class.clang::driver::Multilib" }
%"struct.clang::driver::toolchains::Generic_GCC::GCCVersion" = type { %"class.std::__cxx11::basic_string", i32, i32, i32, %"class.std::__cxx11::basic_string", %"class.std::__cxx11::basic_string", %"class.std::__cxx11::basic_string" }
%"class.clang::driver::toolchains::Generic_GCC::GCCInstallationDetector" = type { i8, %"class.llvm::Triple", ptr, %"class.std::__cxx11::basic_string", %"class.std::__cxx11::basic_string", %"class.clang::driver::Multilib", %"class.std::optional.145", %"struct.clang::driver::toolchains::Generic_GCC::GCCVersion", %"class.std::set", %"class.clang::driver::MultilibSet", %"class.std::__cxx11::basic_string" }
%"class.std::set" = type { %"class.std::_Rb_tree.155" }
%"class.std::_Rb_tree.155" = type { %"struct.std::_Rb_tree<std::__cxx11::basic_string<char>, std::__cxx11::basic_string<char>, std::_Identity<std::__cxx11::basic_string<char>>, std::less<std::__cxx11::basic_string<char>>>::_Rb_tree_impl" }
%"struct.std::_Rb_tree<std::__cxx11::basic_string<char>, std::__cxx11::basic_string<char>, std::_Identity<std::__cxx11::basic_string<char>>, std::less<std::__cxx11::basic_string<char>>>::_Rb_tree_impl" = type { [8 x i8], %"struct.std::_Rb_tree_header" }
%"struct.std::_Optional_payload_base.150" = type <{ %"union.std::_Optional_payload_base<clang::driver::Multilib>::_Storage", i8, [7 x i8] }>

; Function Attrs: mustprogress nounwind uwtable
define linkonce_odr hidden noundef nonnull align 8 dereferenceable(192) ptr @_ZNKSt22_Optional_payload_baseIN5clang6driver8MultilibEE6_M_getEv(ptr noundef nonnull align 8 dereferenceable(193) %0) #0 comdat align 2 {
  %2 = alloca ptr, align 8
  store ptr %0, ptr %2, align 8
  %3 = load ptr, ptr %2, align 8
  %4 = getelementptr inbounds nuw %"struct.std::_Optional_payload_base.150", ptr %3, i32 0, i32 0
  ret ptr %4
}

; Function Attrs: mustprogress nounwind uwtable
define linkonce_odr hidden noundef nonnull align 8 dereferenceable(192) ptr @_ZNKSt19_Optional_base_implIN5clang6driver8MultilibESt14_Optional_baseIS2_Lb0ELb0EEE6_M_getEv(ptr noundef nonnull align 1 dereferenceable(1) %0) #0 comdat align 2 {
  %2 = alloca ptr, align 8
  store ptr %0, ptr %2, align 8
  %3 = load ptr, ptr %2, align 8
  br label %4

4:                                                ; preds = %1
  br label %5

5:                                                ; preds = %4
  %6 = getelementptr inbounds nuw %"struct.std::_Optional_base.146", ptr %3, i32 0, i32 0
  %7 = call noundef nonnull align 8 dereferenceable(192) ptr @_ZNKSt22_Optional_payload_baseIN5clang6driver8MultilibEE6_M_getEv(ptr noundef nonnull align 8 dereferenceable(193) %6) #12
  ret ptr %7
}

; Function Attrs: mustprogress nounwind uwtable
define linkonce_odr hidden noundef zeroext i1 @_ZNKSt19_Optional_base_implIN5clang6driver8MultilibESt14_Optional_baseIS2_Lb0ELb0EEE13_M_is_engagedEv(ptr noundef nonnull align 1 dereferenceable(1) %0) #0 comdat align 2 {
  %2 = alloca ptr, align 8
  store ptr %0, ptr %2, align 8
  %3 = load ptr, ptr %2, align 8
  %4 = getelementptr inbounds nuw %"struct.std::_Optional_base.146", ptr %3, i32 0, i32 0
  %5 = getelementptr inbounds nuw %"struct.std::_Optional_payload_base.150", ptr %4, i32 0, i32 1
  %6 = load i8, ptr %5, align 8
  %7 = trunc i8 %6 to i1
  ret i1 %7
}

; Function Attrs: mustprogress nounwind uwtable
define linkonce_odr hidden noundef nonnull align 8 dereferenceable(192) ptr @_ZNKRSt8optionalIN5clang6driver8MultilibEEdeEv(ptr noundef nonnull align 8 dereferenceable(200) %0) #0 comdat align 2 {
  %2 = alloca ptr, align 8
  store ptr %0, ptr %2, align 8
  %3 = load ptr, ptr %2, align 8
  %4 = call noundef nonnull align 8 dereferenceable(192) ptr @_ZNKSt19_Optional_base_implIN5clang6driver8MultilibESt14_Optional_baseIS2_Lb0ELb0EEE6_M_getEv(ptr noundef nonnull align 1 dereferenceable(1) %3) #12
  ret ptr %4
}

; Function Attrs: mustprogress nounwind uwtable
define linkonce_odr hidden noundef zeroext i1 @_ZNKSt8optionalIN5clang6driver8MultilibEEcvbEv(ptr noundef nonnull align 8 dereferenceable(200) %0) #0 comdat align 2 {
  %2 = alloca ptr, align 8
  store ptr %0, ptr %2, align 8
  %3 = load ptr, ptr %2, align 8
  %4 = call noundef zeroext i1 @_ZNKSt19_Optional_base_implIN5clang6driver8MultilibESt14_Optional_baseIS2_Lb0ELb0EEE13_M_is_engagedEv(ptr noundef nonnull align 1 dereferenceable(1) %3) #12
  ret i1 %4
}

; Function Attrs: mustprogress nounwind uwtable
define hidden noundef zeroext i1 @_ZNK5clang6driver10toolchains11Generic_GCC23GCCInstallationDetector16getBiarchSiblingERNS0_8MultilibE(ptr noundef nonnull align 8 dereferenceable(864) %0, ptr noundef nonnull align 8 dereferenceable(192) %1) #0 align 2 {
  %3 = alloca i1, align 1
  %4 = alloca ptr, align 8
  %5 = alloca ptr, align 8
  store ptr %0, ptr %4, align 8
  store ptr %1, ptr %5, align 8
  %6 = load ptr, ptr %4, align 8
  %7 = getelementptr inbounds nuw %"class.clang::driver::toolchains::Generic_GCC::GCCInstallationDetector", ptr %6, i32 0, i32 6
  %8 = call noundef zeroext i1 @_ZNKSt8optionalIN5clang6driver8MultilibEEcvbEv(ptr noundef nonnull align 8 dereferenceable(200) %7) #12
  br i1 %8, label %9, label %14

9:                                                ; preds = %2
  %10 = getelementptr inbounds nuw %"class.clang::driver::toolchains::Generic_GCC::GCCInstallationDetector", ptr %6, i32 0, i32 6
  %11 = call noundef nonnull align 8 dereferenceable(192) ptr @_ZNKRSt8optionalIN5clang6driver8MultilibEEdeEv(ptr noundef nonnull align 8 dereferenceable(200) %10) #12
  %12 = load ptr, ptr %5, align 8
  %13 = call noundef nonnull align 8 dereferenceable(192) ptr @_ZN5clang6driver8MultilibaSERKS1_(ptr noundef nonnull align 8 dereferenceable(192) %12, ptr noundef nonnull align 8 dereferenceable(192) %11)
  store i1 true, ptr %3, align 1
  br label %15

14:                                               ; preds = %2
  store i1 false, ptr %3, align 1
  br label %15

15:                                               ; preds = %14, %9
  %16 = load i1, ptr %3, align 1
  ret i1 %16
}