; Function Attrs: mustprogress nounwind uwtable
define hidden noundef zeroext i1 @_ZNK5clang6driver10toolchains11Generic_GCC23GCCInstallationDetector16getBiarchSiblingERNS0_8MultilibE(ptr noundef nonnull align 8 dereferenceable(864) %0, ptr noundef nonnull align 8 dereferenceable(192) %1) local_unnamed_addr #0 align 2 {
  %3 = getelementptr inbounds i8, ptr %0, i64 520
  %4 = load i8, ptr %3, align 8
  %5 = trunc i8 %4 to i1
  br i1 %5, label %6, label %9

6:                                                ; preds = %2
  %7 = getelementptr inbounds nuw i8, ptr %0, i64 328
  %8 = tail call noundef nonnull align 8 dereferenceable(192) ptr @_ZN5clang6driver8MultilibaSERKS1_(ptr noundef nonnull align 8 dereferenceable(192) %1, ptr noundef nonnull align 8 dereferenceable(192) %7)
  br label %9

9:                                                ; preds = %2, %6
  ret i1 %5
}